target datalayout = "e-m:e-p270:32:32-p271:32:32-p272:64:64-i64:64-i128:128-f80:128-n8:16:32:64-S128"
target triple = "x86_64-pc-linux-gnu"

%class.ShenandoahRegionPartitions = type { i64, i64, ptr, [2 x %class.ShenandoahSimpleBitMap], [2 x i64], [2 x i64], [2 x i64], [2 x i64], [2 x i64], [2 x i64], [2 x i64] }
%class.ShenandoahSimpleBitMap = type { i64, i64, ptr }

; Function Attrs: mustprogress nounwind uwtable
define hidden void @_ZN26ShenandoahRegionPartitions27establish_mutator_intervalsEllllmm(ptr noundef nonnull align 8 dereferenceable(184) %0, i64 noundef %1, i64 noundef %2, i64 noundef %3, i64 noundef %4, i64 noundef %5, i64 noundef %6) #1 align 2 {
  %8 = alloca ptr, align 8
  %9 = alloca i64, align 8
  %10 = alloca i64, align 8
  %11 = alloca i64, align 8
  %12 = alloca i64, align 8
  %13 = alloca i64, align 8
  %14 = alloca i64, align 8
  store ptr %0, ptr %8, align 8
  store i64 %1, ptr %9, align 8
  store i64 %2, ptr %10, align 8
  store i64 %3, ptr %11, align 8
  store i64 %4, ptr %12, align 8
  store i64 %5, ptr %13, align 8
  store i64 %6, ptr %14, align 8
  %15 = load ptr, ptr %8, align 8
  %16 = load i64, ptr %13, align 8
  %17 = getelementptr inbounds %class.ShenandoahRegionPartitions, ptr %15, i32 0, i32 10
  %18 = getelementptr inbounds [2 x i64], ptr %17, i64 0, i64 0
  store i64 %16, ptr %18, align 8
  %19 = load i64, ptr %9, align 8
  %20 = getelementptr inbounds %class.ShenandoahRegionPartitions, ptr %15, i32 0, i32 4
  %21 = getelementptr inbounds [2 x i64], ptr %20, i64 0, i64 0
  store i64 %19, ptr %21, align 8
  %22 = load i64, ptr %10, align 8
  %23 = getelementptr inbounds %class.ShenandoahRegionPartitions, ptr %15, i32 0, i32 5
  %24 = getelementptr inbounds [2 x i64], ptr %23, i64 0, i64 0
  store i64 %22, ptr %24, align 8
  %25 = load i64, ptr %11, align 8
  %26 = getelementptr inbounds %class.ShenandoahRegionPartitions, ptr %15, i32 0, i32 6
  %27 = getelementptr inbounds [2 x i64], ptr %26, i64 0, i64 0
  store i64 %25, ptr %27, align 8
  %28 = load i64, ptr %12, align 8
  %29 = getelementptr inbounds %class.ShenandoahRegionPartitions, ptr %15, i32 0, i32 7
  %30 = getelementptr inbounds [2 x i64], ptr %29, i64 0, i64 0
  store i64 %28, ptr %30, align 8
  %31 = load i64, ptr %13, align 8
  %32 = getelementptr inbounds %class.ShenandoahRegionPartitions, ptr %15, i32 0, i32 10
  %33 = getelementptr inbounds [2 x i64], ptr %32, i64 0, i64 0
  store i64 %31, ptr %33, align 8
  %34 = load i64, ptr %14, align 8
  %35 = getelementptr inbounds %class.ShenandoahRegionPartitions, ptr %15, i32 0, i32 9
  %36 = getelementptr inbounds [2 x i64], ptr %35, i64 0, i64 0
  store i64 %34, ptr %36, align 8
  %37 = load i64, ptr %13, align 8
  %38 = getelementptr inbounds %class.ShenandoahRegionPartitions, ptr %15, i32 0, i32 1
  %39 = load i64, ptr %38, align 8
  %40 = mul i64 %37, %39
  %41 = getelementptr inbounds %class.ShenandoahRegionPartitions, ptr %15, i32 0, i32 8
  %42 = getelementptr inbounds [2 x i64], ptr %41, i64 0, i64 0
  store i64 %40, ptr %42, align 8
  %43 = getelementptr inbounds %class.ShenandoahRegionPartitions, ptr %15, i32 0, i32 0
  %44 = load i64, ptr %43, align 8
  %45 = getelementptr inbounds %class.ShenandoahRegionPartitions, ptr %15, i32 0, i32 4
  %46 = getelementptr inbounds [2 x i64], ptr %45, i64 0, i64 1
  store i64 %44, ptr %46, align 8
  %47 = getelementptr inbounds %class.ShenandoahRegionPartitions, ptr %15, i32 0, i32 5
  %48 = getelementptr inbounds [2 x i64], ptr %47, i64 0, i64 1
  store i64 -1, ptr %48, align 8
  %49 = getelementptr inbounds %class.ShenandoahRegionPartitions, ptr %15, i32 0, i32 0
  %50 = load i64, ptr %49, align 8
  %51 = getelementptr inbounds %class.ShenandoahRegionPartitions, ptr %15, i32 0, i32 6
  %52 = getelementptr inbounds [2 x i64], ptr %51, i64 0, i64 1
  store i64 %50, ptr %52, align 8
  %53 = getelementptr inbounds %class.ShenandoahRegionPartitions, ptr %15, i32 0, i32 7
  %54 = getelementptr inbounds [2 x i64], ptr %53, i64 0, i64 1
  store i64 -1, ptr %54, align 8
  %55 = getelementptr inbounds %class.ShenandoahRegionPartitions, ptr %15, i32 0, i32 10
  %56 = getelementptr inbounds [2 x i64], ptr %55, i64 0, i64 1
  store i64 0, ptr %56, align 8
  %57 = getelementptr inbounds %class.ShenandoahRegionPartitions, ptr %15, i32 0, i32 9
  %58 = getelementptr inbounds [2 x i64], ptr %57, i64 0, i64 1
  store i64 0, ptr %58, align 8
  %59 = getelementptr inbounds %class.ShenandoahRegionPartitions, ptr %15, i32 0, i32 8
  %60 = getelementptr inbounds [2 x i64], ptr %59, i64 0, i64 1
  store i64 0, ptr %60, align 8
  ret void
}