; Function Attrs: mustprogress nofree norecurse nosync nounwind willreturn memory(argmem: readwrite) uwtable
define hidden void @_ZN26ShenandoahRegionPartitions27establish_mutator_intervalsEllllmm(ptr nocapture noundef nonnull align 8 dereferenceable(184) %0, i64 noundef %1, i64 noundef %2, i64 noundef %3, i64 noundef %4, i64 noundef %5, i64 noundef %6) local_unnamed_addr #3 align 2 {
  %8 = getelementptr inbounds i8, ptr %0, i64 168
  %9 = getelementptr inbounds i8, ptr %0, i64 72
  store i64 %1, ptr %9, align 8
  %10 = getelementptr inbounds i8, ptr %0, i64 88
  store i64 %2, ptr %10, align 8
  %11 = getelementptr inbounds i8, ptr %0, i64 104
  store i64 %3, ptr %11, align 8
  %12 = getelementptr inbounds i8, ptr %0, i64 120
  store i64 %4, ptr %12, align 8
  store i64 %5, ptr %8, align 8
  %13 = getelementptr inbounds i8, ptr %0, i64 152
  store i64 %6, ptr %13, align 8
  %14 = getelementptr inbounds i8, ptr %0, i64 8
  %15 = load i64, ptr %14, align 8
  %16 = mul i64 %15, %5
  %17 = getelementptr inbounds i8, ptr %0, i64 136
  store i64 %16, ptr %17, align 8
  %18 = load i64, ptr %0, align 8
  %19 = getelementptr inbounds i8, ptr %0, i64 80
  store i64 %18, ptr %19, align 8
  %20 = getelementptr inbounds i8, ptr %0, i64 96
  store i64 -1, ptr %20, align 8
  %21 = getelementptr inbounds i8, ptr %0, i64 112
  store i64 %18, ptr %21, align 8
  %22 = getelementptr inbounds i8, ptr %0, i64 128
  store i64 -1, ptr %22, align 8
  %23 = getelementptr inbounds i8, ptr %0, i64 176
  store i64 0, ptr %23, align 8
  %24 = getelementptr inbounds i8, ptr %0, i64 160
  store i64 0, ptr %24, align 8
  %25 = getelementptr inbounds i8, ptr %0, i64 144
  store i64 0, ptr %25, align 8
  ret void
}